target datalayout = "e-m:e-p270:32:32-p271:32:32-p272:64:64-i64:64-i128:128-f80:128-n8:16:32:64-S128"
target triple = "x86_64-pc-linux-gnu"

%struct.RStruct = type { %struct.RBasic, %union.anon }
%struct.RBasic = type { i64, i64 }
%union.anon = type { %struct.anon }
%struct.anon = type { i64, ptr }

@rb_cRange = dso_local global i64 0, align 8
@rb_eTypeError = external global i64, align 8
@.str.63 = private unnamed_addr constant [42 x i8] c"wrong argument type %li\0B (expected Range)\00", align 1

; Function Attrs: inlinehint nounwind sspstrong willreturn memory(read) uwtable
define internal i64 @RB_FL_TEST_RAW(i64 noundef %0, i64 noundef %1) #7 {
  %3 = alloca i64, align 8
  %4 = alloca i64, align 8
  store i64 %0, ptr %3, align 8, !tbaa !7
  store i64 %1, ptr %4, align 8, !tbaa !7
  %5 = load i64, ptr %3, align 8, !tbaa !7
  %6 = inttoptr i64 %5 to ptr
  %7 = getelementptr inbounds nuw %struct.RBasic, ptr %6, i32 0, i32 0
  %8 = load i64, ptr %7, align 8, !tbaa !44
  %9 = load i64, ptr %4, align 8, !tbaa !7
  %10 = and i64 %8, %9
  ret i64 %10
}

; Function Attrs: inlinehint nounwind sspstrong uwtable
define internal ptr @RSTRUCT_CONST_PTR(i64 noundef %0) #3 {
  %2 = alloca ptr, align 8
  %3 = alloca i64, align 8
  %4 = alloca ptr, align 8
  %5 = alloca i32, align 4
  store i64 %0, ptr %3, align 8, !tbaa !7
  call void @llvm.lifetime.start.p0(i64 8, ptr %4) #18
  %6 = load i64, ptr %3, align 8, !tbaa !7
  %7 = inttoptr i64 %6 to ptr
  store ptr %7, ptr %4, align 8, !tbaa !42
  %8 = load i64, ptr %3, align 8, !tbaa !7
  %9 = call i64 @RB_FL_TEST_RAW(i64 noundef %8, i64 noundef 1040384) #21
  %10 = icmp ne i64 %9, 0
  br i1 %10, label %11, label %15

11:                                               ; preds = %1
  %12 = load ptr, ptr %4, align 8, !tbaa !42
  %13 = getelementptr inbounds nuw %struct.RStruct, ptr %12, i32 0, i32 1
  %14 = getelementptr inbounds [1 x i64], ptr %13, i64 0, i64 0
  store ptr %14, ptr %2, align 8
  store i32 1, ptr %5, align 4
  br label %20

15:                                               ; preds = %1
  %16 = load ptr, ptr %4, align 8, !tbaa !42
  %17 = getelementptr inbounds nuw %struct.RStruct, ptr %16, i32 0, i32 1
  %18 = getelementptr inbounds nuw %struct.anon, ptr %17, i32 0, i32 1
  %19 = load ptr, ptr %18, align 8, !tbaa !18
  store ptr %19, ptr %2, align 8
  store i32 1, ptr %5, align 4
  br label %20

20:                                               ; preds = %15, %11
  call void @llvm.lifetime.end.p0(i64 8, ptr %4) #18
  %21 = load ptr, ptr %2, align 8
  ret ptr %21
}

; Function Attrs: nounwind sspstrong uwtable
define internal i32 @r_less(i64 noundef %0, i64 noundef %1) #0 {
  %3 = alloca i32, align 4
  %4 = alloca i64, align 8
  %5 = alloca i64, align 8
  %6 = alloca i64, align 8
  %7 = alloca i32, align 4
  store i64 %0, ptr %4, align 8, !tbaa !7
  store i64 %1, ptr %5, align 8, !tbaa !7
  call void @llvm.lifetime.start.p0(i64 8, ptr %6) #18
  %8 = load i64, ptr %4, align 8, !tbaa !7
  %9 = load i64, ptr %5, align 8, !tbaa !7
  %10 = call i64 (i64, i64, i32, ...) @rb_funcall(i64 noundef %8, i64 noundef 135, i32 noundef 1, i64 noundef %9)
  store i64 %10, ptr %6, align 8, !tbaa !7
  %11 = load i64, ptr %6, align 8, !tbaa !7
  %12 = call zeroext i1 @RB_NIL_P(i64 noundef %11) #19
  br i1 %12, label %13, label %14

13:                                               ; preds = %2
  store i32 2147483647, ptr %3, align 4
  store i32 1, ptr %7, align 4
  br label %19

14:                                               ; preds = %2
  %15 = load i64, ptr %6, align 8, !tbaa !7
  %16 = load i64, ptr %4, align 8, !tbaa !7
  %17 = load i64, ptr %5, align 8, !tbaa !7
  %18 = call i32 @rb_cmpint(i64 noundef %15, i64 noundef %16, i64 noundef %17)
  store i32 %18, ptr %3, align 4
  store i32 1, ptr %7, align 4
  br label %19

19:                                               ; preds = %14, %13
  call void @llvm.lifetime.end.p0(i64 8, ptr %6) #18
  %20 = load i32, ptr %3, align 4
  ret i32 %20
}

; Function Attrs: inlinehint nounwind sspstrong uwtable
define internal i64 @internal_RSTRUCT_GET(i64 noundef %0, i64 noundef %1) #3 {
  %3 = alloca i64, align 8
  %4 = alloca i64, align 8
  store i64 %0, ptr %3, align 8, !tbaa !7
  store i64 %1, ptr %4, align 8, !tbaa !7
  %5 = load i64, ptr %3, align 8, !tbaa !7
  %6 = call ptr @RSTRUCT_CONST_PTR(i64 noundef %5)
  %7 = load i64, ptr %4, align 8, !tbaa !7
  %8 = getelementptr i64, ptr %6, i64 %7
  %9 = load i64, ptr %8, align 8, !tbaa !7
  ret i64 %9
}

; Function Attrs: inlinehint nounwind sspstrong willreturn memory(none) uwtable
define internal zeroext i1 @RB_NIL_P(i64 noundef %0) #4 {
  %2 = alloca i64, align 8
  store i64 %0, ptr %2, align 8, !tbaa !7
  %3 = load i64, ptr %2, align 8, !tbaa !7
  %4 = icmp eq i64 %3, 4
  ret i1 %4
}

; Function Attrs: nounwind sspstrong uwtable
define internal zeroext i1 @empty_region_p(i64 noundef %0, i64 noundef %1, i32 noundef %2) #0 {
  %4 = alloca i1, align 1
  %5 = alloca i64, align 8
  %6 = alloca i64, align 8
  %7 = alloca i32, align 4
  %8 = alloca i32, align 4
  %9 = alloca i32, align 4
  store i64 %0, ptr %5, align 8, !tbaa !7
  store i64 %1, ptr %6, align 8, !tbaa !7
  store i32 %2, ptr %7, align 4, !tbaa !11
  %10 = load i64, ptr %5, align 8, !tbaa !7
  %11 = call zeroext i1 @RB_NIL_P(i64 noundef %10) #19
  br i1 %11, label %12, label %13

12:                                               ; preds = %3
  store i1 false, ptr %4, align 1
  br label %33

13:                                               ; preds = %3
  %14 = load i64, ptr %6, align 8, !tbaa !7
  %15 = call zeroext i1 @RB_NIL_P(i64 noundef %14) #19
  br i1 %15, label %16, label %17

16:                                               ; preds = %13
  store i1 false, ptr %4, align 1
  br label %33

17:                                               ; preds = %13
  call void @llvm.lifetime.start.p0(i64 4, ptr %8) #18
  %18 = load i64, ptr %5, align 8, !tbaa !7
  %19 = load i64, ptr %6, align 8, !tbaa !7
  %20 = call i32 @r_less(i64 noundef %18, i64 noundef %19)
  store i32 %20, ptr %8, align 4, !tbaa !11
  %21 = load i32, ptr %8, align 4, !tbaa !11
  %22 = icmp sgt i32 %21, 0
  br i1 %22, label %23, label %24

23:                                               ; preds = %17
  store i1 true, ptr %4, align 1
  store i32 1, ptr %9, align 4
  br label %32

24:                                               ; preds = %17
  %25 = load i32, ptr %7, align 4, !tbaa !11
  %26 = icmp ne i32 %25, 0
  br i1 %26, label %27, label %31

27:                                               ; preds = %24
  %28 = load i32, ptr %8, align 4, !tbaa !11
  %29 = icmp eq i32 %28, 0
  br i1 %29, label %30, label %31

30:                                               ; preds = %27
  store i1 true, ptr %4, align 1
  store i32 1, ptr %9, align 4
  br label %32

31:                                               ; preds = %27, %24
  store i1 false, ptr %4, align 1
  store i32 1, ptr %9, align 4
  br label %32

32:                                               ; preds = %31, %30, %23
  call void @llvm.lifetime.end.p0(i64 4, ptr %8) #18
  br label %33

33:                                               ; preds = %32, %16, %12
  %34 = load i1, ptr %4, align 1
  ret i1 %34
}

; Function Attrs: inlinehint nounwind sspstrong willreturn memory(none) uwtable
define internal zeroext i1 @RB_TEST(i64 noundef %0) #4 {
  %2 = alloca i64, align 8
  store i64 %0, ptr %2, align 8, !tbaa !7
  %3 = load i64, ptr %2, align 8, !tbaa !7
  %4 = and i64 %3, -5
  %5 = icmp ne i64 %4, 0
  ret i1 %5
}

; Function Attrs: inlinehint nounwind sspstrong uwtable
define internal i64 @RANGE_EXCL(i64 noundef %0) #3 {
  %2 = alloca i64, align 8
  store i64 %0, ptr %2, align 8, !tbaa !7
  %3 = load i64, ptr %2, align 8, !tbaa !7
  %4 = call i64 @internal_RSTRUCT_GET(i64 noundef %3, i64 noundef 2)
  ret i64 %4
}

; Function Attrs: inlinehint nounwind sspstrong uwtable
define internal i64 @RANGE_END(i64 noundef %0) #3 {
  %2 = alloca i64, align 8
  store i64 %0, ptr %2, align 8, !tbaa !7
  %3 = load i64, ptr %2, align 8, !tbaa !7
  %4 = call i64 @internal_RSTRUCT_GET(i64 noundef %3, i64 noundef 1)
  ret i64 %4
}

; Function Attrs: inlinehint nounwind sspstrong uwtable
define internal i64 @RANGE_BEG(i64 noundef %0) #3 {
  %2 = alloca i64, align 8
  store i64 %0, ptr %2, align 8, !tbaa !7
  %3 = load i64, ptr %2, align 8, !tbaa !7
  %4 = inttoptr i64 %3 to ptr
  %5 = getelementptr inbounds nuw %struct.RStruct, ptr %4, i32 0, i32 1
  %6 = getelementptr [1 x i64], ptr %5, i64 0, i64 0
  %7 = load i64, ptr %6, align 8, !tbaa !18
  ret i64 %7
}

; Function Attrs: nounwind sspstrong uwtable
define internal i64 @range_overlap(i64 noundef %0, i64 noundef %1) #0 {
  %3 = alloca i64, align 8
  %4 = alloca i64, align 8
  %5 = alloca i64, align 8
  %6 = alloca i64, align 8
  %7 = alloca i64, align 8
  %8 = alloca i32, align 4
  %9 = alloca i64, align 8
  %10 = alloca i64, align 8
  %11 = alloca i32, align 4
  %12 = alloca i32, align 4
  %13 = alloca i64, align 8
  %14 = alloca i64, align 8
  store i64 %0, ptr %4, align 8, !tbaa !7
  store i64 %1, ptr %5, align 8, !tbaa !7
  %15 = load i64, ptr %5, align 8, !tbaa !7
  %16 = load i64, ptr @rb_cRange, align 8, !tbaa !7
  %17 = call i64 @rb_obj_is_kind_of(i64 noundef %15, i64 noundef %16)
  %18 = icmp ne i64 %17, 0
  br i1 %18, label %24, label %19

19:                                               ; preds = %2
  %20 = load i64, ptr @rb_eTypeError, align 8, !tbaa !7
  %21 = load i64, ptr %5, align 8, !tbaa !7
  %22 = call i64 @rb_obj_class(i64 noundef %21)
  %23 = call i64 @rb_class_name(i64 noundef %22)
  call void (i64, ptr, ...) @rb_raise(i64 noundef %20, ptr noundef @.str.63, i64 noundef %23) #20
  unreachable

24:                                               ; preds = %2
  call void @llvm.lifetime.start.p0(i64 8, ptr %6) #18
  %25 = load i64, ptr %4, align 8, !tbaa !7
  %26 = call i64 @RANGE_BEG(i64 noundef %25)
  store i64 %26, ptr %6, align 8, !tbaa !7
  call void @llvm.lifetime.start.p0(i64 8, ptr %7) #18
  %27 = load i64, ptr %4, align 8, !tbaa !7
  %28 = call i64 @RANGE_END(i64 noundef %27)
  store i64 %28, ptr %7, align 8, !tbaa !7
  call void @llvm.lifetime.start.p0(i64 4, ptr %8) #18
  %29 = load i64, ptr %4, align 8, !tbaa !7
  %30 = call i64 @RANGE_EXCL(i64 noundef %29)
  %31 = call zeroext i1 @RB_TEST(i64 noundef %30) #19
  %32 = zext i1 %31 to i32
  store i32 %32, ptr %8, align 4, !tbaa !11
  call void @llvm.lifetime.start.p0(i64 8, ptr %9) #18
  %33 = load i64, ptr %5, align 8, !tbaa !7
  %34 = call i64 @RANGE_BEG(i64 noundef %33)
  store i64 %34, ptr %9, align 8, !tbaa !7
  call void @llvm.lifetime.start.p0(i64 8, ptr %10) #18
  %35 = load i64, ptr %5, align 8, !tbaa !7
  %36 = call i64 @RANGE_END(i64 noundef %35)
  store i64 %36, ptr %10, align 8, !tbaa !7
  call void @llvm.lifetime.start.p0(i64 4, ptr %11) #18
  %37 = load i64, ptr %5, align 8, !tbaa !7
  %38 = call i64 @RANGE_EXCL(i64 noundef %37)
  %39 = call zeroext i1 @RB_TEST(i64 noundef %38) #19
  %40 = zext i1 %39 to i32
  store i32 %40, ptr %11, align 4, !tbaa !11
  %41 = load i64, ptr %6, align 8, !tbaa !7
  %42 = load i64, ptr %10, align 8, !tbaa !7
  %43 = load i32, ptr %11, align 4, !tbaa !11
  %44 = call zeroext i1 @empty_region_p(i64 noundef %41, i64 noundef %42, i32 noundef %43)
  br i1 %44, label %45, label %46

45:                                               ; preds = %24
  store i64 0, ptr %3, align 8
  store i32 1, ptr %12, align 4
  br label %107

46:                                               ; preds = %24
  %47 = load i64, ptr %9, align 8, !tbaa !7
  %48 = load i64, ptr %7, align 8, !tbaa !7
  %49 = load i32, ptr %8, align 4, !tbaa !11
  %50 = call zeroext i1 @empty_region_p(i64 noundef %47, i64 noundef %48, i32 noundef %49)
  br i1 %50, label %51, label %52

51:                                               ; preds = %46
  store i64 0, ptr %3, align 8
  store i32 1, ptr %12, align 4
  br label %107

52:                                               ; preds = %46
  %53 = load i64, ptr %6, align 8, !tbaa !7
  %54 = call zeroext i1 @RB_NIL_P(i64 noundef %53) #19
  br i1 %54, label %76, label %55

55:                                               ; preds = %52
  %56 = load i64, ptr %9, align 8, !tbaa !7
  %57 = call zeroext i1 @RB_NIL_P(i64 noundef %56) #19
  br i1 %57, label %76, label %58

58:                                               ; preds = %55
  call void @llvm.lifetime.start.p0(i64 8, ptr %13) #18
  %59 = load i64, ptr %6, align 8, !tbaa !7
  %60 = load i64, ptr %9, align 8, !tbaa !7
  %61 = call i64 (i64, i64, i32, ...) @rb_funcall(i64 noundef %59, i64 noundef 135, i32 noundef 1, i64 noundef %60)
  store i64 %61, ptr %13, align 8, !tbaa !7
  %62 = load i64, ptr %13, align 8, !tbaa !7
  %63 = call zeroext i1 @RB_NIL_P(i64 noundef %62) #19
  br i1 %63, label %64, label %65

64:                                               ; preds = %58
  store i64 0, ptr %3, align 8
  store i32 1, ptr %12, align 4
  br label %73

65:                                               ; preds = %58
  %66 = load i64, ptr %13, align 8, !tbaa !7
  %67 = load i64, ptr %6, align 8, !tbaa !7
  %68 = load i64, ptr %9, align 8, !tbaa !7
  %69 = call i32 @rb_cmpint(i64 noundef %66, i64 noundef %67, i64 noundef %68)
  %70 = icmp eq i32 %69, 0
  br i1 %70, label %71, label %72

71:                                               ; preds = %65
  store i64 20, ptr %3, align 8
  store i32 1, ptr %12, align 4
  br label %73

72:                                               ; preds = %65
  store i32 0, ptr %12, align 4
  br label %73

73:                                               ; preds = %72, %71, %64
  call void @llvm.lifetime.end.p0(i64 8, ptr %13) #18
  %74 = load i32, ptr %12, align 4
  switch i32 %74, label %107 [
    i32 0, label %75
  ]

75:                                               ; preds = %73
  br label %94

76:                                               ; preds = %55, %52
  %77 = load i64, ptr %6, align 8, !tbaa !7
  %78 = call zeroext i1 @RB_NIL_P(i64 noundef %77) #19
  br i1 %78, label %79, label %93

79:                                               ; preds = %76
  %80 = load i64, ptr %7, align 8, !tbaa !7
  %81 = call zeroext i1 @RB_NIL_P(i64 noundef %80) #19
  br i1 %81, label %93, label %82

82:                                               ; preds = %79
  %83 = load i64, ptr %9, align 8, !tbaa !7
  %84 = call zeroext i1 @RB_NIL_P(i64 noundef %83) #19
  br i1 %84, label %85, label %93

85:                                               ; preds = %82
  call void @llvm.lifetime.start.p0(i64 8, ptr %14) #18
  %86 = load i64, ptr %7, align 8, !tbaa !7
  %87 = load i64, ptr %10, align 8, !tbaa !7
  %88 = call i64 (i64, i64, i32, ...) @rb_funcall(i64 noundef %86, i64 noundef 135, i32 noundef 1, i64 noundef %87)
  store i64 %88, ptr %14, align 8, !tbaa !7
  %89 = load i64, ptr %14, align 8, !tbaa !7
  %90 = call zeroext i1 @RB_NIL_P(i64 noundef %89) #19
  %91 = xor i1 %90, true
  %92 = select i1 %91, i64 20, i64 0
  store i64 %92, ptr %3, align 8
  store i32 1, ptr %12, align 4
  call void @llvm.lifetime.end.p0(i64 8, ptr %14) #18
  br label %107

93:                                               ; preds = %82, %79, %76
  br label %94

94:                                               ; preds = %93, %75
  %95 = load i64, ptr %6, align 8, !tbaa !7
  %96 = load i64, ptr %7, align 8, !tbaa !7
  %97 = load i32, ptr %8, align 4, !tbaa !11
  %98 = call zeroext i1 @empty_region_p(i64 noundef %95, i64 noundef %96, i32 noundef %97)
  br i1 %98, label %99, label %100

99:                                               ; preds = %94
  store i64 0, ptr %3, align 8
  store i32 1, ptr %12, align 4
  br label %107

100:                                              ; preds = %94
  %101 = load i64, ptr %9, align 8, !tbaa !7
  %102 = load i64, ptr %10, align 8, !tbaa !7
  %103 = load i32, ptr %11, align 4, !tbaa !11
  %104 = call zeroext i1 @empty_region_p(i64 noundef %101, i64 noundef %102, i32 noundef %103)
  br i1 %104, label %105, label %106

105:                                              ; preds = %100
  store i64 0, ptr %3, align 8
  store i32 1, ptr %12, align 4
  br label %107

106:                                              ; preds = %100
  store i64 20, ptr %3, align 8
  store i32 1, ptr %12, align 4
  br label %107

107:                                              ; preds = %106, %105, %99, %85, %73, %51, %45
  call void @llvm.lifetime.end.p0(i64 4, ptr %11) #18
  call void @llvm.lifetime.end.p0(i64 8, ptr %10) #18
  call void @llvm.lifetime.end.p0(i64 8, ptr %9) #18
  call void @llvm.lifetime.end.p0(i64 4, ptr %8) #18
  call void @llvm.lifetime.end.p0(i64 8, ptr %7) #18
  call void @llvm.lifetime.end.p0(i64 8, ptr %6) #18
  %108 = load i64, ptr %3, align 8
  ret i64 %108
}