; Function Attrs: nounwind sspstrong uwtable
define internal range(i64 0, 21) i64 @range_overlap(i64 noundef %0, i64 noundef %1) #0 {
  %3 = load i64, ptr @rb_cRange, align 8, !tbaa !7
  %4 = tail call i64 @rb_obj_is_kind_of(i64 noundef %1, i64 noundef %3) #13
  %.not = icmp eq i64 %4, 0
  br i1 %.not, label %5, label %9

5:                                                ; preds = %2
  %6 = load i64, ptr @rb_eTypeError, align 8, !tbaa !7
  %7 = tail call i64 @rb_obj_class(i64 noundef %1) #13
  %8 = tail call i64 @rb_class_name(i64 noundef %7) #13
  tail call void (i64, ptr, ...) @rb_raise(i64 noundef %6, ptr noundef nonnull @.str.63, i64 noundef %8) #14
  unreachable

9:                                                ; preds = %2
  %10 = inttoptr i64 %0 to ptr
  %11 = getelementptr inbounds nuw i8, ptr %10, i64 16
  %12 = load i64, ptr %11, align 8, !tbaa !13
  %13 = load i64, ptr %10, align 8, !tbaa !11
  %14 = and i64 %13, 1040384
  %.not.i.i.i = icmp eq i64 %14, 0
  %15 = getelementptr i8, ptr %10, i64 24
  br i1 %.not.i.i.i, label %16, label %RANGE_EXCL.exit

16:                                               ; preds = %9
  %17 = load ptr, ptr %15, align 8, !tbaa !13
  %18 = getelementptr i8, ptr %17, i64 8
  br label %RANGE_EXCL.exit

RANGE_EXCL.exit:                                  ; preds = %9, %16
  %.in = phi ptr [ %18, %16 ], [ %15, %9 ]
  %.0.i.i.i40 = phi ptr [ %17, %16 ], [ %11, %9 ]
  %19 = load i64, ptr %.in, align 8, !tbaa !7
  %20 = getelementptr i8, ptr %.0.i.i.i40, i64 16
  %21 = load i64, ptr %20, align 8, !tbaa !7
  %22 = and i64 %21, -5
  %23 = icmp ne i64 %22, 0
  %24 = inttoptr i64 %1 to ptr
  %25 = getelementptr inbounds nuw i8, ptr %24, i64 16
  %26 = load i64, ptr %25, align 8, !tbaa !13
  %27 = load i64, ptr %24, align 8, !tbaa !11
  %28 = and i64 %27, 1040384
  %.not.i.i.i41 = icmp eq i64 %28, 0
  %29 = getelementptr i8, ptr %24, i64 24
  br i1 %.not.i.i.i41, label %30, label %RANGE_EXCL.exit46

30:                                               ; preds = %RANGE_EXCL.exit
  %31 = load ptr, ptr %29, align 8, !tbaa !13
  %32 = getelementptr i8, ptr %31, i64 8
  br label %RANGE_EXCL.exit46

RANGE_EXCL.exit46:                                ; preds = %RANGE_EXCL.exit, %30
  %.in86 = phi ptr [ %32, %30 ], [ %29, %RANGE_EXCL.exit ]
  %.0.i.i.i45 = phi ptr [ %31, %30 ], [ %25, %RANGE_EXCL.exit ]
  %33 = load i64, ptr %.in86, align 8, !tbaa !7
  %34 = getelementptr i8, ptr %.0.i.i.i45, i64 16
  %35 = load i64, ptr %34, align 8, !tbaa !7
  %36 = and i64 %35, -5
  %37 = icmp ne i64 %36, 0
  %38 = icmp eq i64 %12, 4
  %39 = icmp eq i64 %33, 4
  %or.cond10.i = or i1 %38, %39
  br i1 %or.cond10.i, label %empty_region_p.exit.thread65, label %40

40:                                               ; preds = %RANGE_EXCL.exit46
  %41 = tail call i64 (i64, i64, i32, ...) @rb_funcall(i64 noundef %12, i64 noundef 135, i32 noundef 1, i64 noundef %33) #13
  %42 = icmp eq i64 %41, 4
  br i1 %42, label %empty_region_p.exit.thread, label %r_less.exit.i

r_less.exit.i:                                    ; preds = %40
  %43 = tail call i32 @rb_cmpint(i64 noundef %41, i64 noundef %12, i64 noundef %33) #13
  %44 = icmp sgt i32 %43, 0
  %45 = icmp eq i32 %43, 0
  %or.cond.i = and i1 %37, %45
  %or.cond = select i1 %44, i1 true, i1 %or.cond.i
  br i1 %or.cond, label %empty_region_p.exit.thread, label %empty_region_p.exit.thread65

empty_region_p.exit.thread65:                     ; preds = %r_less.exit.i, %RANGE_EXCL.exit46
  %46 = icmp eq i64 %26, 4
  %47 = icmp eq i64 %19, 4
  %or.cond10.i47 = or i1 %47, %46
  br i1 %or.cond10.i47, label %empty_region_p.exit51.thread68, label %48

48:                                               ; preds = %empty_region_p.exit.thread65
  %49 = tail call i64 (i64, i64, i32, ...) @rb_funcall(i64 noundef %26, i64 noundef 135, i32 noundef 1, i64 noundef %19) #13
  %50 = icmp eq i64 %49, 4
  br i1 %50, label %empty_region_p.exit.thread, label %r_less.exit.i48

r_less.exit.i48:                                  ; preds = %48
  %51 = tail call i32 @rb_cmpint(i64 noundef %49, i64 noundef %26, i64 noundef %19) #13
  %52 = icmp sgt i32 %51, 0
  %53 = icmp eq i32 %51, 0
  %or.cond.i49 = and i1 %23, %53
  %or.cond83 = select i1 %52, i1 true, i1 %or.cond.i49
  br i1 %or.cond83, label %empty_region_p.exit.thread, label %empty_region_p.exit51.thread68

empty_region_p.exit51.thread68:                   ; preds = %r_less.exit.i48, %empty_region_p.exit.thread65
  br i1 %38, label %.critedge, label %54

54:                                               ; preds = %empty_region_p.exit51.thread68
  br i1 %46, label %64, label %55

55:                                               ; preds = %54
  %56 = tail call i64 (i64, i64, i32, ...) @rb_funcall(i64 noundef %12, i64 noundef 135, i32 noundef 1, i64 noundef %26) #13
  %57 = icmp eq i64 %56, 4
  br i1 %57, label %empty_region_p.exit.thread, label %58

58:                                               ; preds = %55
  %59 = tail call i32 @rb_cmpint(i64 noundef %56, i64 noundef %12, i64 noundef %26) #13
  %.not87 = icmp eq i32 %59, 0
  br i1 %.not87, label %empty_region_p.exit.thread, label %64

.critedge:                                        ; preds = %empty_region_p.exit51.thread68
  %.not84 = xor i1 %46, true
  %brmerge = or i1 %47, %.not84
  br i1 %brmerge, label %empty_region_p.exit56.thread76, label %60

60:                                               ; preds = %.critedge
  %61 = tail call i64 (i64, i64, i32, ...) @rb_funcall(i64 noundef %19, i64 noundef 135, i32 noundef 1, i64 noundef %33) #13
  %62 = icmp eq i64 %61, 4
  %63 = select i1 %62, i64 0, i64 20
  br label %empty_region_p.exit.thread

64:                                               ; preds = %54, %58
  br i1 %47, label %empty_region_p.exit56.thread76, label %65

65:                                               ; preds = %64
  %66 = tail call i64 (i64, i64, i32, ...) @rb_funcall(i64 noundef %12, i64 noundef 135, i32 noundef 1, i64 noundef %19) #13
  %67 = icmp eq i64 %66, 4
  br i1 %67, label %empty_region_p.exit.thread, label %r_less.exit.i53

r_less.exit.i53:                                  ; preds = %65
  %68 = tail call i32 @rb_cmpint(i64 noundef %66, i64 noundef %12, i64 noundef %19) #13
  %69 = icmp sgt i32 %68, 0
  %70 = icmp eq i32 %68, 0
  %or.cond.i54 = and i1 %23, %70
  %or.cond85 = select i1 %69, i1 true, i1 %or.cond.i54
  br i1 %or.cond85, label %empty_region_p.exit.thread, label %empty_region_p.exit56.thread76

empty_region_p.exit56.thread76:                   ; preds = %r_less.exit.i53, %.critedge, %64
  %or.cond10.i57 = or i1 %46, %39
  br i1 %or.cond10.i57, label %empty_region_p.exit.thread, label %71

71:                                               ; preds = %empty_region_p.exit56.thread76
  %72 = tail call i64 (i64, i64, i32, ...) @rb_funcall(i64 noundef %26, i64 noundef 135, i32 noundef 1, i64 noundef %33) #13
  %73 = icmp eq i64 %72, 4
  br i1 %73, label %empty_region_p.exit61.thread, label %r_less.exit.i58

r_less.exit.i58:                                  ; preds = %71
  %74 = tail call i32 @rb_cmpint(i64 noundef %72, i64 noundef %26, i64 noundef %33) #13
  %75 = icmp sgt i32 %74, 0
  br i1 %75, label %empty_region_p.exit61.thread, label %empty_region_p.exit61

empty_region_p.exit61:                            ; preds = %r_less.exit.i58
  %76 = icmp eq i32 %74, 0
  %or.cond.i59 = and i1 %37, %76
  %cond.fr = freeze i1 %or.cond.i59
  br i1 %cond.fr, label %empty_region_p.exit61.thread, label %empty_region_p.exit.thread

empty_region_p.exit61.thread:                     ; preds = %71, %r_less.exit.i58, %empty_region_p.exit61
  br label %empty_region_p.exit.thread

empty_region_p.exit.thread:                       ; preds = %empty_region_p.exit56.thread76, %65, %r_less.exit.i53, %55, %48, %r_less.exit.i48, %40, %r_less.exit.i, %empty_region_p.exit61.thread, %empty_region_p.exit61, %58, %60
  %.0 = phi i64 [ %63, %60 ], [ 20, %58 ], [ 0, %empty_region_p.exit61.thread ], [ 20, %empty_region_p.exit61 ], [ 0, %r_less.exit.i ], [ 0, %40 ], [ 0, %r_less.exit.i48 ], [ 0, %48 ], [ 0, %55 ], [ 0, %r_less.exit.i53 ], [ 0, %65 ], [ 20, %empty_region_p.exit56.thread76 ]
  ret i64 %.0
}